target datalayout = "e-m:e-p270:32:32-p271:32:32-p272:64:64-i64:64-i128:128-f80:128-n8:16:32:64-S128"
target triple = "x86_64-pc-linux-gnu"

%union.pthread_mutex_t = type { %struct.__pthread_mutex_s }
%struct.__pthread_mutex_s = type { i32, i32, i32, i32, i32, i16, i16, %struct.__pthread_internal_list }
%struct.__pthread_internal_list = type { ptr, ptr }

@item_locks = internal global ptr null, align 8
@item_lock_hashpower = internal global i32 0, align 4
@hash = external global ptr, align 8

; Function Attrs: nounwind uwtable
define dso_local void @item_lock(i32 noundef %0) #0 {
  %2 = alloca i32, align 4
  store i32 %0, ptr %2, align 4, !tbaa !4
  %3 = load ptr, ptr @item_locks, align 8, !tbaa !8
  %4 = load i32, ptr %2, align 4, !tbaa !4
  %5 = zext i32 %4 to i64
  %6 = load i32, ptr @item_lock_hashpower, align 4, !tbaa !4
  %7 = zext i32 %6 to i64
  %8 = shl i64 1, %7
  %9 = sub i64 %8, 1
  %10 = and i64 %5, %9
  %11 = getelementptr inbounds nuw %union.pthread_mutex_t, ptr %3, i64 %10
  %12 = call i32 @pthread_mutex_lock(ptr noundef %11) #8
  ret void
}

; Function Attrs: nounwind uwtable
define dso_local ptr @item_get_locked(ptr noundef %0, i64 noundef %1, ptr noundef %2, i1 noundef zeroext %3, ptr noundef %4) #0 {
  %6 = alloca ptr, align 8
  %7 = alloca i64, align 8
  %8 = alloca ptr, align 8
  %9 = alloca i8, align 1
  %10 = alloca ptr, align 8
  %11 = alloca ptr, align 8
  store ptr %0, ptr %6, align 8, !tbaa !59
  store i64 %1, ptr %7, align 8, !tbaa !58
  store ptr %2, ptr %8, align 8, !tbaa !8
  %12 = zext i1 %3 to i8
  store i8 %12, ptr %9, align 1, !tbaa !10
  store ptr %4, ptr %10, align 8, !tbaa !99
  call void @llvm.lifetime.start.p0(i64 8, ptr %11) #8
  %13 = load ptr, ptr @hash, align 8, !tbaa !8
  %14 = load ptr, ptr %6, align 8, !tbaa !59
  %15 = load i64, ptr %7, align 8, !tbaa !58
  %16 = call i32 %13(ptr noundef %14, i64 noundef %15)
  %17 = load ptr, ptr %10, align 8, !tbaa !99
  store i32 %16, ptr %17, align 4, !tbaa !4
  %18 = load ptr, ptr %10, align 8, !tbaa !99
  %19 = load i32, ptr %18, align 4, !tbaa !4
  call void @item_lock(i32 noundef %19)
  %20 = load ptr, ptr %6, align 8, !tbaa !59
  %21 = load i64, ptr %7, align 8, !tbaa !58
  %22 = load ptr, ptr %10, align 8, !tbaa !99
  %23 = load i32, ptr %22, align 4, !tbaa !4
  %24 = load ptr, ptr %8, align 8, !tbaa !8
  %25 = load i8, ptr %9, align 1, !tbaa !10, !range !20, !noundef !21
  %26 = trunc i8 %25 to i1
  %27 = call ptr @do_item_get(ptr noundef %20, i64 noundef %21, i32 noundef %23, ptr noundef %24, i1 noundef zeroext %26)
  store ptr %27, ptr %11, align 8, !tbaa !97
  %28 = load ptr, ptr %11, align 8, !tbaa !97
  call void @llvm.lifetime.end.p0(i64 8, ptr %11) #8
  ret ptr %28
}