; Function Attrs: nounwind uwtable
define dso_local ptr @item_get_locked(ptr noundef %0, i64 noundef %1, ptr noundef %2, i1 noundef zeroext %3, ptr noundef captures(none) initializes((0, 4)) %4) local_unnamed_addr #0 {
  %6 = load ptr, ptr @hash, align 8, !tbaa !4
  %7 = tail call i32 %6(ptr noundef %0, i64 noundef %1) #15
  store i32 %7, ptr %4, align 4, !tbaa !8
  %8 = load ptr, ptr @item_locks, align 8, !tbaa !4
  %9 = zext i32 %7 to i64
  %10 = load i32, ptr @item_lock_hashpower, align 4, !tbaa !8
  %11 = zext nneg i32 %10 to i64
  %notmask.i = shl nsw i64 -1, %11
  %12 = xor i64 %notmask.i, -1
  %13 = and i64 %12, %9
  %14 = getelementptr inbounds nuw %union.pthread_mutex_t, ptr %8, i64 %13
  %15 = tail call i32 @pthread_mutex_lock(ptr noundef %14) #15
  %16 = load i32, ptr %4, align 4, !tbaa !8
  %17 = tail call ptr @do_item_get(ptr noundef %0, i64 noundef %1, i32 noundef %16, ptr noundef %2, i1 noundef zeroext %3) #15
  ret ptr %17
}